target datalayout = "e-m:e-p270:32:32-p271:32:32-p272:64:64-i64:64-i128:128-f80:128-n8:16:32:64-S128"
target triple = "x86_64-pc-linux-gnu"

%struct.file_entry_t = type { i32, ptr, i8, i8, i32, i64, ptr, %struct.datapagemap, i8, i32, i64, ptr, i32 }
%struct.datapagemap = type { ptr, i32 }

@.str = private unnamed_addr constant [7 x i8] c"pg_wal\00", align 1
@.str.2 = private unnamed_addr constant [27 x i8] c"duplicate source file \22%s\22\00", align 1

; Function Attrs: nounwind uwtable
define dso_local void @process_target_file(ptr noundef %0, i32 noundef %1, i64 noundef %2, ptr noundef %3) #0 {
  %5 = alloca ptr, align 8
  %6 = alloca i32, align 4
  %7 = alloca i64, align 8
  %8 = alloca ptr, align 8
  %9 = alloca ptr, align 8
  store ptr %0, ptr %5, align 8
  store i32 %1, ptr %6, align 4
  store i64 %2, ptr %7, align 8
  store ptr %3, ptr %8, align 8
  call void @llvm.lifetime.start.p0(i64 8, ptr %9) #11
  %10 = load ptr, ptr %5, align 8
  %11 = call i32 @strcmp(ptr noundef %10, ptr noundef @.str) #12
  %12 = icmp eq i32 %11, 0
  br i1 %12, label %13, label %17

13:                                               ; preds = %4
  %14 = load i32, ptr %6, align 4
  %15 = icmp eq i32 %14, 3
  br i1 %15, label %16, label %17

16:                                               ; preds = %13
  store i32 2, ptr %6, align 4
  br label %17

17:                                               ; preds = %16, %13, %4
  %18 = load ptr, ptr %5, align 8
  %19 = call ptr @insert_filehash_entry(ptr noundef %18)
  store ptr %19, ptr %9, align 8
  %20 = load ptr, ptr %9, align 8
  %21 = getelementptr inbounds nuw %struct.file_entry_t, ptr %20, i32 0, i32 3
  %22 = load i8, ptr %21, align 1, !range !4, !noundef !5
  %23 = trunc i8 %22 to i1
  br i1 %23, label %24, label %29

24:                                               ; preds = %17
  br label %25

25:                                               ; preds = %24
  %26 = load ptr, ptr %5, align 8
  call void (i32, i32, ptr, ...) @pg_log_generic(i32 noundef 4, i32 noundef 0, ptr noundef @.str.2, ptr noundef %26)
  call void @exit(i32 noundef 1) #13
  unreachable

27:                                               ; No predecessors!
  br label %28

28:                                               ; preds = %27
  br label %29

29:                                               ; preds = %28, %17
  %30 = load ptr, ptr %9, align 8
  %31 = getelementptr inbounds nuw %struct.file_entry_t, ptr %30, i32 0, i32 3
  store i8 1, ptr %31, align 1
  %32 = load i32, ptr %6, align 4
  %33 = load ptr, ptr %9, align 8
  %34 = getelementptr inbounds nuw %struct.file_entry_t, ptr %33, i32 0, i32 4
  store i32 %32, ptr %34, align 4
  %35 = load i64, ptr %7, align 8
  %36 = load ptr, ptr %9, align 8
  %37 = getelementptr inbounds nuw %struct.file_entry_t, ptr %36, i32 0, i32 5
  store i64 %35, ptr %37, align 8
  %38 = load ptr, ptr %8, align 8
  %39 = icmp ne ptr %38, null
  br i1 %39, label %40, label %43

40:                                               ; preds = %29
  %41 = load ptr, ptr %8, align 8
  %42 = call ptr @pg_strdup(ptr noundef %41)
  br label %44

43:                                               ; preds = %29
  br label %44

44:                                               ; preds = %43, %40
  %45 = phi ptr [ %42, %40 ], [ null, %43 ]
  %46 = load ptr, ptr %9, align 8
  %47 = getelementptr inbounds nuw %struct.file_entry_t, ptr %46, i32 0, i32 6
  store ptr %45, ptr %47, align 8
  call void @llvm.lifetime.end.p0(i64 8, ptr %9) #11
  ret void
}