; Function Attrs: nounwind uwtable
define dso_local void @process_target_file(ptr noundef %0, i32 noundef %1, i64 noundef %2, ptr noundef %3) local_unnamed_addr #0 {
  %5 = tail call i32 @strcmp(ptr noundef nonnull dereferenceable(1) %0, ptr noundef nonnull dereferenceable(7) @.str) #15
  %6 = tail call fastcc ptr @insert_filehash_entry(ptr noundef nonnull %0)
  %7 = getelementptr inbounds nuw i8, ptr %6, i64 17
  %8 = load i8, ptr %7, align 1, !range !8, !noundef !9
  %9 = trunc nuw i8 %8 to i1
  br i1 %9, label %10, label %11

10:                                               ; preds = %4
  tail call void (i32, i32, ptr, ...) @pg_log_generic(i32 noundef 4, i32 noundef 0, ptr noundef nonnull @.str.2, ptr noundef nonnull %0) #13
  tail call void @exit(i32 noundef 1) #14
  unreachable

11:                                               ; preds = %4
  %12 = icmp eq i32 %5, 0
  %13 = icmp eq i32 %1, 3
  %or.cond = and i1 %13, %12
  %spec.store.select = select i1 %or.cond, i32 2, i32 %1
  store i8 1, ptr %7, align 1
  %14 = getelementptr inbounds nuw i8, ptr %6, i64 20
  store i32 %spec.store.select, ptr %14, align 4
  %15 = getelementptr inbounds nuw i8, ptr %6, i64 24
  store i64 %2, ptr %15, align 8
  %.not = icmp eq ptr %3, null
  br i1 %.not, label %18, label %16

16:                                               ; preds = %11
  %17 = tail call ptr @pg_strdup(ptr noundef nonnull %3) #13
  br label %18

18:                                               ; preds = %11, %16
  %19 = phi ptr [ %17, %16 ], [ null, %11 ]
  %20 = getelementptr inbounds nuw i8, ptr %6, i64 32
  store ptr %19, ptr %20, align 8
  ret void
}